target datalayout = "e-m:e-p270:32:32-p271:32:32-p272:64:64-i64:64-i128:128-f80:128-n8:16:32:64-S128"
target triple = "x86_64-pc-linux-gnu"

%"class.doctest::(anonymous namespace)::XmlWriter::ScopedElement" = type { ptr }

; Function Attrs: mustprogress nounwind uwtable
define internal void @_ZN7doctest12_GLOBAL__N_19XmlWriter13ScopedElementD2Ev(ptr noundef nonnull align 8 dereferenceable(8) %0) unnamed_addr #1 align 2 personality ptr @__gxx_personality_v0 {
  %2 = alloca ptr, align 8
  store ptr %0, ptr %2, align 8, !tbaa !921
  %3 = load ptr, ptr %2, align 8
  %4 = getelementptr inbounds nuw %"class.doctest::(anonymous namespace)::XmlWriter::ScopedElement", ptr %3, i32 0, i32 0
  %5 = load ptr, ptr %4, align 8, !tbaa !923
  %6 = icmp ne ptr %5, null
  br i1 %6, label %7, label %12

7:                                                ; preds = %1
  %8 = getelementptr inbounds nuw %"class.doctest::(anonymous namespace)::XmlWriter::ScopedElement", ptr %3, i32 0, i32 0
  %9 = load ptr, ptr %8, align 8, !tbaa !923
  %10 = invoke noundef nonnull align 8 dereferenceable(72) ptr @_ZN7doctest12_GLOBAL__N_19XmlWriter10endElementEv(ptr noundef nonnull align 8 dereferenceable(72) %9)
          to label %11 unwind label %13

11:                                               ; preds = %7
  br label %12

12:                                               ; preds = %11, %1
  ret void

13:                                               ; preds = %7
  %14 = landingpad { ptr, i32 }
          catch ptr null
  %15 = extractvalue { ptr, i32 } %14, 0
  call void @__clang_call_terminate(ptr %15) #33
  unreachable
}