; Function Attrs: mustprogress nounwind uwtable
define internal fastcc void @_ZN7doctest12_GLOBAL__N_19XmlWriter13ScopedElementD2Ev(ptr %.0.val) unnamed_addr #7 align 2 personality ptr @__gxx_personality_v0 {
  %.not = icmp eq ptr %.0.val, null
  br i1 %.not, label %3, label %1

1:                                                ; preds = %0
  %2 = invoke fastcc noundef nonnull align 8 dereferenceable(72) ptr @_ZN7doctest12_GLOBAL__N_19XmlWriter10endElementEv(ptr noundef nonnull align 8 dereferenceable(72) %.0.val)
          to label %3 unwind label %4

3:                                                ; preds = %1, %0
  ret void

4:                                                ; preds = %1
  %5 = landingpad { ptr, i32 }
          catch ptr null
  %6 = extractvalue { ptr, i32 } %5, 0
  tail call void @__clang_call_terminate(ptr %6) #53
  unreachable
}